; Function Attrs: mustprogress uwtable
define internal void @_ZN2THL18THDiskFile_seekEndEPNS_8THFile__E(ptr noundef captures(none) %0) #5 personality ptr @__gxx_personality_v0 {
  %2 = alloca %"class.std::__cxx11::basic_string", align 8
  %3 = alloca %"class.std::allocator", align 1
  %4 = alloca %"class.std::__cxx11::basic_string", align 8
  %5 = getelementptr inbounds nuw i8, ptr %0, i64 32
  %6 = load ptr, ptr %5, align 8, !tbaa !3
  %.not = icmp eq ptr %6, null
  br i1 %.not, label %7, label %20

7:                                                ; preds = %1
  call void @llvm.lifetime.start.p0(i64 32, ptr nonnull %2) #17
  call void @llvm.lifetime.start.p0(i64 1, ptr nonnull %3) #17
  invoke void @_ZNSt7__cxx1112basic_stringIcSt11char_traitsIcESaIcEEC2EPKcRKS3_(ptr noundef nonnull align 8 dereferenceable(32) %2, ptr noundef nonnull @.str, ptr noundef nonnull align 1 dereferenceable(1) %3)
          to label %8 unwind label %10

8:                                                ; preds = %7
  invoke void @_ZN2cv5errorEiRKNSt7__cxx1112basic_stringIcSt11char_traitsIcESaIcEEEPKcS9_i(i32 noundef -215, ptr noundef nonnull align 8 dereferenceable(32) %2, ptr noundef nonnull @__func__._ZN2THL18THDiskFile_seekEndEPNS_8THFile__E, ptr noundef nonnull @.str.1, i32 noundef 131) #18
          to label %9 unwind label %12

9:                                                ; preds = %8
  unreachable

10:                                               ; preds = %7
  %11 = landingpad { ptr, i32 }
          cleanup
  br label %_ZNSt7__cxx1112basic_stringIcSt11char_traitsIcESaIcEED2Ev.exit

12:                                               ; preds = %8
  %13 = landingpad { ptr, i32 }
          cleanup
  %14 = load ptr, ptr %2, align 8, !tbaa !12
  %15 = getelementptr inbounds nuw i8, ptr %2, i64 16
  %16 = icmp eq ptr %14, %15
  br i1 %16, label %_ZNKSt7__cxx1112basic_stringIcSt11char_traitsIcESaIcEE11_M_is_localEv.exit.thread.i.i, label %_ZNKSt7__cxx1112basic_stringIcSt11char_traitsIcESaIcEE11_M_is_localEv.exit.i.i

_ZNKSt7__cxx1112basic_stringIcSt11char_traitsIcESaIcEE11_M_is_localEv.exit.thread.i.i: ; preds = %12
  %17 = getelementptr inbounds nuw i8, ptr %2, i64 8
  %18 = load i64, ptr %17, align 8, !tbaa !17
  %19 = icmp ult i64 %18, 16
  call void @llvm.assume(i1 %19)
  br label %_ZNSt7__cxx1112basic_stringIcSt11char_traitsIcESaIcEED2Ev.exit

_ZNKSt7__cxx1112basic_stringIcSt11char_traitsIcESaIcEE11_M_is_localEv.exit.i.i: ; preds = %12
  call void @_ZdlPv(ptr noundef %14) #19
  br label %_ZNSt7__cxx1112basic_stringIcSt11char_traitsIcESaIcEED2Ev.exit

_ZNSt7__cxx1112basic_stringIcSt11char_traitsIcESaIcEED2Ev.exit: ; preds = %_ZNKSt7__cxx1112basic_stringIcSt11char_traitsIcESaIcEE11_M_is_localEv.exit.i.i, %_ZNKSt7__cxx1112basic_stringIcSt11char_traitsIcESaIcEE11_M_is_localEv.exit.thread.i.i, %10
  %.pn = phi { ptr, i32 } [ %11, %10 ], [ %13, %_ZNKSt7__cxx1112basic_stringIcSt11char_traitsIcESaIcEE11_M_is_localEv.exit.thread.i.i ], [ %13, %_ZNKSt7__cxx1112basic_stringIcSt11char_traitsIcESaIcEE11_M_is_localEv.exit.i.i ]
  call void @llvm.lifetime.end.p0(i64 1, ptr nonnull %3) #17
  call void @llvm.lifetime.end.p0(i64 32, ptr nonnull %2) #17
  br label %38

20:                                               ; preds = %1
  %21 = tail call i32 @fseeko(ptr noundef nonnull %6, i64 noundef 0, i32 noundef 2)
  %22 = icmp slt i32 %21, 0
  br i1 %22, label %23, label %37

23:                                               ; preds = %20
  %24 = getelementptr inbounds nuw i8, ptr %0, i64 28
  store i32 1, ptr %24, align 4, !tbaa !28
  %25 = getelementptr inbounds nuw i8, ptr %0, i64 8
  %26 = load i32, ptr %25, align 8, !tbaa !23
  %.not10 = icmp eq i32 %26, 0
  br i1 %.not10, label %27, label %37

27:                                               ; preds = %23
  call void @llvm.lifetime.start.p0(i64 32, ptr nonnull %4) #17
  call void (ptr, ptr, ...) @_ZN2cv6formatB5cxx11EPKcz(ptr dead_on_unwind nonnull writable sret(%"class.std::__cxx11::basic_string") align 8 %4, ptr noundef nonnull @.str.22)
  invoke void @_ZN2cv5errorEiRKNSt7__cxx1112basic_stringIcSt11char_traitsIcESaIcEEEPKcS9_i(i32 noundef -2, ptr noundef nonnull align 8 dereferenceable(32) %4, ptr noundef nonnull @__func__._ZN2THL18THDiskFile_seekEndEPNS_8THFile__E, ptr noundef nonnull @.str.1, i32 noundef 143) #18
          to label %28 unwind label %29

28:                                               ; preds = %27
  unreachable

29:                                               ; preds = %27
  %30 = landingpad { ptr, i32 }
          cleanup
  %31 = load ptr, ptr %4, align 8, !tbaa !12
  %32 = getelementptr inbounds nuw i8, ptr %4, i64 16
  %33 = icmp eq ptr %31, %32
  br i1 %33, label %_ZNKSt7__cxx1112basic_stringIcSt11char_traitsIcESaIcEE11_M_is_localEv.exit.thread.i.i14, label %_ZNKSt7__cxx1112basic_stringIcSt11char_traitsIcESaIcEE11_M_is_localEv.exit.i.i13

_ZNKSt7__cxx1112basic_stringIcSt11char_traitsIcESaIcEE11_M_is_localEv.exit.thread.i.i14: ; preds = %29
  %34 = getelementptr inbounds nuw i8, ptr %4, i64 8
  %35 = load i64, ptr %34, align 8, !tbaa !17
  %36 = icmp ult i64 %35, 16
  call void @llvm.assume(i1 %36)
  br label %_ZNSt7__cxx1112basic_stringIcSt11char_traitsIcESaIcEED2Ev.exit15

_ZNKSt7__cxx1112basic_stringIcSt11char_traitsIcESaIcEE11_M_is_localEv.exit.i.i13: ; preds = %29
  call void @_ZdlPv(ptr noundef %31) #19
  br label %_ZNSt7__cxx1112basic_stringIcSt11char_traitsIcESaIcEED2Ev.exit15

_ZNSt7__cxx1112basic_stringIcSt11char_traitsIcESaIcEED2Ev.exit15: ; preds = %_ZNKSt7__cxx1112basic_stringIcSt11char_traitsIcESaIcEE11_M_is_localEv.exit.thread.i.i14, %_ZNKSt7__cxx1112basic_stringIcSt11char_traitsIcESaIcEE11_M_is_localEv.exit.i.i13
  call void @llvm.lifetime.end.p0(i64 32, ptr nonnull %4) #17
  br label %38

37:                                               ; preds = %23, %20
  ret void

38:                                               ; preds = %_ZNSt7__cxx1112basic_stringIcSt11char_traitsIcESaIcEED2Ev.exit15, %_ZNSt7__cxx1112basic_stringIcSt11char_traitsIcESaIcEED2Ev.exit
  %.pn11 = phi { ptr, i32 } [ %30, %_ZNSt7__cxx1112basic_stringIcSt11char_traitsIcESaIcEED2Ev.exit15 ], [ %.pn, %_ZNSt7__cxx1112basic_stringIcSt11char_traitsIcESaIcEED2Ev.exit ]
  resume { ptr, i32 } %.pn11
}